; Function Attrs: mustprogress uwtable
define dso_local void @_ZN4onnx16TypeProto_TensorC2EPN6google8protobuf5ArenaE(ptr noundef nonnull writeonly align 8 captures(none) dereferenceable(40) initializes((0, 36)) %0, ptr noundef %1) unnamed_addr #3 align 2 personality ptr @__gxx_personality_v0 {
  %3 = getelementptr inbounds nuw i8, ptr %0, i64 8
  store ptr %1, ptr %3, align 8, !tbaa !4
  store ptr getelementptr inbounds nuw inrange(-16, 160) (i8, ptr @_ZTVN4onnx16TypeProto_TensorE, i64 16), ptr %0, align 8, !tbaa !9
  %4 = getelementptr inbounds nuw i8, ptr %0, i64 16
  store i32 0, ptr %4, align 8
  %5 = getelementptr inbounds nuw i8, ptr %0, i64 20
  store i32 0, ptr %5, align 4, !tbaa !41
  %6 = load atomic i32, ptr @scc_info_TypeProto_Tensor_onnx_2eproto acquire, align 8
  %.not.i.i = icmp eq i32 %6, 0
  br i1 %.not.i.i, label %8, label %7, !prof !11

7:                                                ; preds = %2
  tail call void @_ZN6google8protobuf8internal11InitSCCImplEPNS1_11SCCInfoBaseE(ptr noundef nonnull @scc_info_TypeProto_Tensor_onnx_2eproto)
  br label %8

8:                                                ; preds = %7, %2
  %9 = getelementptr inbounds nuw i8, ptr %0, i64 24
  tail call void @llvm.memset.p0.i64(ptr noundef nonnull align 8 dereferenceable(12) %9, i8 0, i64 12, i1 false)
  ret void
}